; Function Attrs: nounwind sspstrong uwtable
define internal i64 @rb_str_each_byte(i64 noundef %0) #1 {
  %2 = tail call i32 @rb_block_given_p() #29
  %.not = icmp eq i32 %2, 0
  br i1 %.not, label %3, label %7

3:                                                ; preds = %1
  %4 = tail call i64 @rb_frame_this_func() #29
  %5 = tail call i64 @rb_id2sym(i64 noundef %4) #29
  %6 = tail call i64 @rb_enumeratorize_with_size(i64 noundef %0, i64 noundef %5, i32 noundef 0, ptr noundef null, ptr noundef nonnull @rb_str_each_byte_size) #29
  br label %rb_str_enumerate_bytes.exit

7:                                                ; preds = %1
  %8 = inttoptr i64 %0 to ptr
  %9 = getelementptr inbounds nuw i8, ptr %8, i64 16
  %10 = load i64, ptr %9, align 8, !tbaa !12
  %11 = icmp sgt i64 %10, 0
  br i1 %11, label %.lr.ph.i, label %rb_str_enumerate_bytes.exit

.lr.ph.i:                                         ; preds = %7
  %12 = getelementptr inbounds nuw i8, ptr %8, i64 24
  br label %.lr.ph.split.us.i

.lr.ph.split.us.i:                                ; preds = %RSTRING_PTR.exit.us.i, %.lr.ph.i
  %.012.us.i = phi i64 [ %22, %RSTRING_PTR.exit.us.i ], [ 0, %.lr.ph.i ]
  %13 = load i64, ptr %8, align 8, !tbaa !7, !noalias !755
  %14 = and i64 %13, 8192
  %.not.i.i.us.i = icmp eq i64 %14, 0
  br i1 %.not.i.i.us.i, label %RSTRING_PTR.exit.us.i, label %15

15:                                               ; preds = %.lr.ph.split.us.i
  %.sroa.2.0.copyload.i.us.i = load ptr, ptr %12, align 8
  br label %RSTRING_PTR.exit.us.i

RSTRING_PTR.exit.us.i:                            ; preds = %15, %.lr.ph.split.us.i
  %.sroa.2.0.i.us.i = phi ptr [ %.sroa.2.0.copyload.i.us.i, %15 ], [ %12, %.lr.ph.split.us.i ]
  %16 = getelementptr i8, ptr %.sroa.2.0.i.us.i, i64 %.012.us.i
  %17 = load i8, ptr %16, align 1, !tbaa !19
  %18 = zext i8 %17 to i64
  %19 = shl nuw nsw i64 %18, 1
  %20 = or disjoint i64 %19, 1
  %21 = tail call i64 @rb_yield(i64 noundef %20) #29
  %22 = add nuw nsw i64 %.012.us.i, 1
  %23 = load i64, ptr %9, align 8, !tbaa !12
  %24 = icmp slt i64 %22, %23
  br i1 %24, label %.lr.ph.split.us.i, label %rb_str_enumerate_bytes.exit, !llvm.loop !624

rb_str_enumerate_bytes.exit:                      ; preds = %RSTRING_PTR.exit.us.i, %7, %3
  %.0 = phi i64 [ %6, %3 ], [ %0, %7 ], [ %0, %RSTRING_PTR.exit.us.i ]
  ret i64 %.0
}